target datalayout = "e-m:e-p270:32:32-p271:32:32-p272:64:64-i64:64-i128:128-f80:128-n8:16:32:64-S128"
target triple = "x86_64-pc-linux-gnu"

%class.Klass = type <{ %class.Metadata, i32, i32, i32, i32, ptr, ptr, ptr, [8 x ptr], %class.OopHandle, ptr, ptr, ptr, ptr, ptr, i32, %class.AccessFlags, i64, i64, i8, i8, i16, i16, [2 x i8], i32, [4 x i8] }>
%class.Metadata = type { ptr }
%class.OopHandle = type { ptr }
%class.AccessFlags = type { i32 }
%class.Dependencies = type { ptr, [9 x ptr], i8, [9 x ptr], ptr, ptr, ptr, i64 }
%"class.Dependencies::DepValue" = type { i32 }
%class.ObjArrayKlass = type { %class.ArrayKlass, ptr, ptr }
%class.ArrayKlass = type { %class.Klass.base, i32, ptr, ptr }
%class.Klass.base = type <{ %class.Metadata, i32, i32, i32, i32, ptr, ptr, ptr, [8 x ptr], %class.OopHandle, ptr, ptr, ptr, ptr, ptr, i32, %class.AccessFlags, i64, i64, i8, i8, i16, i16, [2 x i8], i32 }>
%class.OopRecorder = type { %class.ValueRecorder, %class.ValueRecorder.6, ptr }
%class.ValueRecorder = type <{ ptr, ptr, ptr, ptr, i8, [7 x i8] }>
%class.ValueRecorder.6 = type <{ ptr, ptr, ptr, ptr, i8, [7 x i8] }>

; Function Attrs: mustprogress nounwind uwtable
define linkonce_odr hidden noundef i32 @_ZN13ValueRecorderIP8MetadataE10find_indexES1_(ptr noundef nonnull align 8 dereferenceable(33) %0, ptr noundef %1) #1 comdat align 2 {
  %3 = alloca ptr, align 8
  %4 = alloca ptr, align 8
  %5 = alloca i32, align 4
  store ptr %0, ptr %3, align 8
  store ptr %1, ptr %4, align 8
  %6 = load ptr, ptr %3, align 8
  %7 = load ptr, ptr %4, align 8
  %8 = call noundef i32 @_ZN13ValueRecorderIP8MetadataE16maybe_find_indexES1_(ptr noundef nonnull align 8 dereferenceable(33) %6, ptr noundef %7)
  store i32 %8, ptr %5, align 4
  %9 = load i32, ptr %5, align 4
  %10 = icmp slt i32 %9, 0
  br i1 %10, label %11, label %14

11:                                               ; preds = %2
  %12 = load ptr, ptr %4, align 8
  %13 = call noundef i32 @_ZN13ValueRecorderIP8MetadataE10add_handleES1_b(ptr noundef nonnull align 8 dereferenceable(33) %6, ptr noundef %12, i1 noundef zeroext true)
  store i32 %13, ptr %5, align 4
  br label %14

14:                                               ; preds = %11, %2
  %15 = load i32, ptr %5, align 4
  ret i32 %15
}

; Function Attrs: mustprogress nounwind uwtable
define linkonce_odr hidden noundef ptr @_ZN11OopRecorder11metadata_atEi(ptr noundef nonnull align 8 dereferenceable(88) %0, i32 noundef %1) #1 comdat align 2 {
  %3 = alloca ptr, align 8
  %4 = alloca i32, align 4
  store ptr %0, ptr %3, align 8
  store i32 %1, ptr %4, align 4
  %5 = load ptr, ptr %3, align 8
  %6 = getelementptr inbounds %class.OopRecorder, ptr %5, i32 0, i32 1
  %7 = load i32, ptr %4, align 4
  %8 = call noundef ptr @_ZN13ValueRecorderIP8MetadataE2atEi(ptr noundef nonnull align 8 dereferenceable(33) %6, i32 noundef %7)
  ret ptr %8
}

; Function Attrs: mustprogress nounwind uwtable
define linkonce_odr hidden noundef i32 @_ZNK12Dependencies8DepValue5indexEv(ptr noundef nonnull align 4 dereferenceable(4) %0) #1 comdat align 2 {
  %2 = alloca ptr, align 8
  store ptr %0, ptr %2, align 8
  %3 = load ptr, ptr %2, align 8
  %4 = getelementptr inbounds %"class.Dependencies::DepValue", ptr %3, i32 0, i32 0
  %5 = load i32, ptr %4, align 4
  %6 = icmp slt i32 %5, 0
  br i1 %6, label %7, label %12

7:                                                ; preds = %1
  %8 = getelementptr inbounds %"class.Dependencies::DepValue", ptr %3, i32 0, i32 0
  %9 = load i32, ptr %8, align 4
  %10 = add nsw i32 %9, 1
  %11 = sub nsw i32 0, %10
  br label %16

12:                                               ; preds = %1
  %13 = getelementptr inbounds %"class.Dependencies::DepValue", ptr %3, i32 0, i32 0
  %14 = load i32, ptr %13, align 4
  %15 = sub nsw i32 %14, 1
  br label %16

16:                                               ; preds = %12, %7
  %17 = phi i32 [ %11, %7 ], [ %15, %12 ]
  ret i32 %17
}

; Function Attrs: mustprogress nounwind uwtable
define linkonce_odr hidden noundef i32 @_ZN11OopRecorder10find_indexEP8Metadata(ptr noundef nonnull align 8 dereferenceable(88) %0, ptr noundef %1) #1 comdat align 2 {
  %3 = alloca ptr, align 8
  %4 = alloca ptr, align 8
  store ptr %0, ptr %3, align 8
  store ptr %1, ptr %4, align 8
  %5 = load ptr, ptr %3, align 8
  %6 = getelementptr inbounds %class.OopRecorder, ptr %5, i32 0, i32 1
  %7 = load ptr, ptr %4, align 8
  %8 = call noundef i32 @_ZN13ValueRecorderIP8MetadataE10find_indexES1_(ptr noundef nonnull align 8 dereferenceable(33) %6, ptr noundef %7)
  ret i32 %8
}

; Function Attrs: mustprogress nounwind uwtable
define linkonce_odr hidden noundef ptr @_ZNK12Dependencies8DepValue11as_metadataEP11OopRecorder(ptr noundef nonnull align 4 dereferenceable(4) %0, ptr noundef %1) #1 comdat align 2 {
  %3 = alloca ptr, align 8
  %4 = alloca ptr, align 8
  store ptr %0, ptr %3, align 8
  store ptr %1, ptr %4, align 8
  %5 = load ptr, ptr %3, align 8
  %6 = load ptr, ptr %4, align 8
  %7 = call noundef i32 @_ZNK12Dependencies8DepValue5indexEv(ptr noundef nonnull align 4 dereferenceable(4) %5)
  %8 = call noundef ptr @_ZN11OopRecorder11metadata_atEi(ptr noundef nonnull align 8 dereferenceable(88) %6, i32 noundef %7)
  ret ptr %8
}

; Function Attrs: mustprogress nounwind uwtable
define linkonce_odr hidden noundef ptr @_ZN13ObjArrayKlass4castEPK5Klass(ptr noundef %0) #1 comdat align 2 {
  %2 = alloca ptr, align 8
  store ptr %0, ptr %2, align 8
  %3 = load ptr, ptr %2, align 8
  ret ptr %3
}

; Function Attrs: mustprogress nounwind uwtable
define linkonce_odr hidden noundef zeroext i8 @_ZN5Klass26layout_helper_element_typeEi(i32 noundef %0) #1 comdat align 2 {
  %2 = alloca i32, align 4
  %3 = alloca i32, align 4
  store i32 %0, ptr %2, align 4
  %4 = load i32, ptr %2, align 4
  %5 = ashr i32 %4, 8
  %6 = and i32 %5, 255
  store i32 %6, ptr %3, align 4
  %7 = load i32, ptr %3, align 4
  %8 = trunc i32 %7 to i8
  ret i8 %8
}

; Function Attrs: mustprogress nounwind uwtable
define linkonce_odr hidden noundef i32 @_ZNK5Klass13layout_helperEv(ptr noundef nonnull align 8 dereferenceable(196) %0) #1 comdat align 2 {
  %2 = alloca ptr, align 8
  store ptr %0, ptr %2, align 8
  %3 = load ptr, ptr %2, align 8
  %4 = getelementptr inbounds %class.Klass, ptr %3, i32 0, i32 1
  %5 = load i32, ptr %4, align 8
  ret i32 %5
}

; Function Attrs: mustprogress nounwind uwtable
define linkonce_odr hidden noundef ptr @_ZN10ArrayKlass4castEPK5Klass(ptr noundef %0) #1 comdat align 2 {
  %2 = alloca ptr, align 8
  store ptr %0, ptr %2, align 8
  %3 = load ptr, ptr %2, align 8
  ret ptr %3
}

; Function Attrs: mustprogress nounwind uwtable
define linkonce_odr hidden void @_ZN12Dependencies8DepValueC2EP11OopRecorderP8MetadataPS0_(ptr noundef nonnull align 4 dereferenceable(4) %0, ptr noundef %1, ptr noundef %2, ptr noundef %3) unnamed_addr #1 comdat align 2 {
  %5 = alloca ptr, align 8
  %6 = alloca ptr, align 8
  %7 = alloca ptr, align 8
  %8 = alloca ptr, align 8
  store ptr %0, ptr %5, align 8
  store ptr %1, ptr %6, align 8
  store ptr %2, ptr %7, align 8
  store ptr %3, ptr %8, align 8
  %9 = load ptr, ptr %5, align 8
  %10 = load ptr, ptr %8, align 8
  %11 = icmp ne ptr %10, null
  br i1 %11, label %12, label %23

12:                                               ; preds = %4
  %13 = load ptr, ptr %8, align 8
  %14 = load ptr, ptr %6, align 8
  %15 = call noundef ptr @_ZNK12Dependencies8DepValue11as_metadataEP11OopRecorder(ptr noundef nonnull align 4 dereferenceable(4) %13, ptr noundef %14)
  %16 = load ptr, ptr %7, align 8
  %17 = icmp eq ptr %15, %16
  br i1 %17, label %18, label %23

18:                                               ; preds = %12
  %19 = load ptr, ptr %8, align 8
  %20 = getelementptr inbounds %"class.Dependencies::DepValue", ptr %19, i32 0, i32 0
  %21 = load i32, ptr %20, align 4
  %22 = getelementptr inbounds %"class.Dependencies::DepValue", ptr %9, i32 0, i32 0
  store i32 %21, ptr %22, align 4
  br label %29

23:                                               ; preds = %12, %4
  %24 = load ptr, ptr %6, align 8
  %25 = load ptr, ptr %7, align 8
  %26 = call noundef i32 @_ZN11OopRecorder10find_indexEP8Metadata(ptr noundef nonnull align 8 dereferenceable(88) %24, ptr noundef %25)
  %27 = add nsw i32 %26, 1
  %28 = getelementptr inbounds %"class.Dependencies::DepValue", ptr %9, i32 0, i32 0
  store i32 %27, ptr %28, align 4
  br label %29

29:                                               ; preds = %23, %18
  ret void
}

; Function Attrs: mustprogress nounwind uwtable
define linkonce_odr hidden void @_ZN12Dependencies10check_ctxkEP5Klass(ptr noundef %0) #1 comdat align 2 {
  %2 = alloca ptr, align 8
  store ptr %0, ptr %2, align 8
  ret void
}

; Function Attrs: mustprogress nounwind uwtable
define linkonce_odr hidden noundef ptr @_ZNK13ObjArrayKlass12bottom_klassEv(ptr noundef nonnull align 8 dereferenceable(232) %0) #1 comdat align 2 {
  %2 = alloca ptr, align 8
  store ptr %0, ptr %2, align 8
  %3 = load ptr, ptr %2, align 8
  %4 = getelementptr inbounds %class.ObjArrayKlass, ptr %3, i32 0, i32 2
  %5 = load ptr, ptr %4, align 8
  ret ptr %5
}

; Function Attrs: mustprogress nounwind uwtable
define linkonce_odr hidden noundef ptr @_ZN13ObjArrayKlass4castEP5Klass(ptr noundef %0) #1 comdat align 2 {
  %2 = alloca ptr, align 8
  store ptr %0, ptr %2, align 8
  %3 = load ptr, ptr %2, align 8
  %4 = call noundef ptr @_ZN13ObjArrayKlass4castEPK5Klass(ptr noundef %3)
  ret ptr %4
}

; Function Attrs: mustprogress nounwind uwtable
define linkonce_odr hidden noundef zeroext i1 @_Z17is_java_primitive9BasicType(i8 noundef zeroext %0) #1 comdat {
  %2 = alloca i8, align 1
  store i8 %0, ptr %2, align 1
  %3 = load i8, ptr %2, align 1
  %4 = zext i8 %3 to i32
  %5 = icmp sle i32 4, %4
  br i1 %5, label %6, label %10

6:                                                ; preds = %1
  %7 = load i8, ptr %2, align 1
  %8 = zext i8 %7 to i32
  %9 = icmp sle i32 %8, 11
  br label %10

10:                                               ; preds = %6, %1
  %11 = phi i1 [ false, %1 ], [ %9, %6 ]
  ret i1 %11
}

; Function Attrs: mustprogress nounwind uwtable
define linkonce_odr hidden noundef zeroext i8 @_ZNK10ArrayKlass12element_typeEv(ptr noundef nonnull align 8 dereferenceable(216) %0) #1 comdat align 2 {
  %2 = alloca ptr, align 8
  store ptr %0, ptr %2, align 8
  %3 = load ptr, ptr %2, align 8
  %4 = call noundef i32 @_ZNK5Klass13layout_helperEv(ptr noundef nonnull align 8 dereferenceable(196) %3)
  %5 = call noundef zeroext i8 @_ZN5Klass26layout_helper_element_typeEi(i32 noundef %4)
  ret i8 %5
}

; Function Attrs: mustprogress nounwind uwtable
define linkonce_odr hidden noundef ptr @_ZN10ArrayKlass4castEP5Klass(ptr noundef %0) #1 comdat align 2 {
  %2 = alloca ptr, align 8
  store ptr %0, ptr %2, align 8
  %3 = load ptr, ptr %2, align 8
  %4 = call noundef ptr @_ZN10ArrayKlass4castEPK5Klass(ptr noundef %3)
  ret ptr %4
}

; Function Attrs: mustprogress nounwind uwtable
define linkonce_odr hidden noundef zeroext i1 @_ZNK5Klass14is_array_klassEv(ptr noundef nonnull align 8 dereferenceable(196) %0) #1 comdat align 2 {
  %2 = alloca ptr, align 8
  store ptr %0, ptr %2, align 8
  %3 = load ptr, ptr %2, align 8
  %4 = getelementptr inbounds %class.Klass, ptr %3, i32 0, i32 2
  %5 = load i32, ptr %4, align 4
  %6 = icmp sge i32 %5, 5
  ret i1 %6
}

; Function Attrs: mustprogress nounwind uwtable
define hidden void @_ZN12Dependencies16assert_leaf_typeEP5Klass(ptr noundef nonnull align 8 dereferenceable(192) %0, ptr noundef %1) #1 align 2 {
  %3 = alloca ptr, align 8
  %4 = alloca ptr, align 8
  %5 = alloca i8, align 1
  %6 = alloca %"class.Dependencies::DepValue", align 4
  store ptr %0, ptr %3, align 8
  store ptr %1, ptr %4, align 8
  %7 = load ptr, ptr %3, align 8
  %8 = load ptr, ptr %4, align 8
  %9 = call noundef zeroext i1 @_ZNK5Klass14is_array_klassEv(ptr noundef nonnull align 8 dereferenceable(196) %8)
  br i1 %9, label %10, label %21

10:                                               ; preds = %2
  %11 = load ptr, ptr %4, align 8
  %12 = call noundef ptr @_ZN10ArrayKlass4castEP5Klass(ptr noundef %11)
  %13 = call noundef zeroext i8 @_ZNK10ArrayKlass12element_typeEv(ptr noundef nonnull align 8 dereferenceable(216) %12)
  store i8 %13, ptr %5, align 1
  %14 = load i8, ptr %5, align 1
  %15 = call noundef zeroext i1 @_Z17is_java_primitive9BasicType(i8 noundef zeroext %14)
  br i1 %15, label %16, label %17

16:                                               ; preds = %10
  br label %28

17:                                               ; preds = %10
  %18 = load ptr, ptr %4, align 8
  %19 = call noundef ptr @_ZN13ObjArrayKlass4castEP5Klass(ptr noundef %18)
  %20 = call noundef ptr @_ZNK13ObjArrayKlass12bottom_klassEv(ptr noundef nonnull align 8 dereferenceable(232) %19)
  store ptr %20, ptr %4, align 8
  br label %21

21:                                               ; preds = %17, %2
  %22 = load ptr, ptr %4, align 8
  call void @_ZN12Dependencies10check_ctxkEP5Klass(ptr noundef %22)
  %23 = getelementptr inbounds %class.Dependencies, ptr %7, i32 0, i32 4
  %24 = load ptr, ptr %23, align 8
  %25 = load ptr, ptr %4, align 8
  call void @_ZN12Dependencies8DepValueC2EP11OopRecorderP8MetadataPS0_(ptr noundef nonnull align 4 dereferenceable(4) %6, ptr noundef %24, ptr noundef %25, ptr noundef null)
  %26 = getelementptr inbounds %"class.Dependencies::DepValue", ptr %6, i32 0, i32 0
  %27 = load i32, ptr %26, align 4
  call void @_ZN12Dependencies15assert_common_1ENS_7DepTypeENS_8DepValueE(ptr noundef nonnull align 8 dereferenceable(192) %7, i32 noundef 2, i32 %27)
  br label %28

28:                                               ; preds = %21, %16
  ret void
}