; Function Attrs: mustprogress nounwind uwtable
define hidden void @_ZN12Dependencies16assert_leaf_typeEP5Klass(ptr nocapture noundef nonnull readonly align 8 dereferenceable(192) %0, ptr noundef %1) local_unnamed_addr #0 align 2 {
  %3 = getelementptr inbounds i8, ptr %1, i64 12
  %4 = load i32, ptr %3, align 4
  %5 = icmp sgt i32 %4, 4
  br i1 %5, label %6, label %16

6:                                                ; preds = %2
  %7 = getelementptr inbounds i8, ptr %1, i64 8
  %8 = load i32, ptr %7, align 8
  %9 = lshr i32 %8, 8
  %10 = trunc i32 %9 to i8
  %11 = add i8 %10, -4
  %12 = icmp ult i8 %11, 8
  br i1 %12, label %25, label %13

13:                                               ; preds = %6
  %14 = getelementptr inbounds i8, ptr %1, i64 224
  %15 = load ptr, ptr %14, align 8
  br label %16

16:                                               ; preds = %13, %2
  %.0 = phi ptr [ %15, %13 ], [ %1, %2 ]
  %17 = getelementptr inbounds i8, ptr %0, i64 160
  %18 = load ptr, ptr %17, align 8
  %19 = getelementptr inbounds i8, ptr %18, i64 40
  %20 = tail call noundef i32 @_ZN13ValueRecorderIP8MetadataE16maybe_find_indexES1_(ptr noundef nonnull align 8 dereferenceable(33) %19, ptr noundef %.0) #18
  %21 = icmp slt i32 %20, 0
  br i1 %21, label %22, label %_ZN12Dependencies8DepValueC2EP11OopRecorderP8MetadataPS0_.exit

22:                                               ; preds = %16
  %23 = tail call noundef i32 @_ZN13ValueRecorderIP8MetadataE10add_handleES1_b(ptr noundef nonnull align 8 dereferenceable(33) %19, ptr noundef %.0, i1 noundef zeroext true) #18
  br label %_ZN12Dependencies8DepValueC2EP11OopRecorderP8MetadataPS0_.exit

_ZN12Dependencies8DepValueC2EP11OopRecorderP8MetadataPS0_.exit: ; preds = %16, %22
  %.0.i.i.i = phi i32 [ %23, %22 ], [ %20, %16 ]
  %24 = add nsw i32 %.0.i.i.i, 1
  tail call void @_ZN12Dependencies15assert_common_1ENS_7DepTypeENS_8DepValueE(ptr noundef nonnull align 8 dereferenceable(192) %0, i32 noundef 2, i32 %24)
  br label %25

25:                                               ; preds = %6, %_ZN12Dependencies8DepValueC2EP11OopRecorderP8MetadataPS0_.exit
  ret void
}